; Function Attrs: mustprogress sspstrong uwtable
define void @_ZN3tbb6detail2r124destroy_binding_observerEPNS1_21numa_binding_observerE(ptr noundef nonnull %0) local_unnamed_addr #1 {
  tail call void @_ZN3tbb6detail2r17observeERNS0_2d123task_scheduler_observerEb(ptr noundef nonnull align 8 dereferenceable(32) %0, i1 noundef zeroext false)
  %2 = load ptr, ptr %0, align 8, !tbaa !54
  %3 = getelementptr inbounds nuw i8, ptr %2, i64 16
  %4 = load ptr, ptr %3, align 8
  tail call void %4(ptr noundef nonnull align 8 dereferenceable(40) %0) #13
  tail call void @_ZN3tbb6detail2r117deallocate_memoryEPv(ptr noundef nonnull %0)
  ret void
}